; Function Attrs: mustprogress uwtable
define noundef nonnull align 8 dereferenceable(127) ptr @_ZN6icu_7714MessagePattern16parsePluralStyleERKNS_13UnicodeStringEP11UParseErrorR10UErrorCode(ptr noundef nonnull returned align 8 dereferenceable(127) %0, ptr noundef nonnull align 8 dereferenceable(64) %1, ptr noundef %2, ptr noundef nonnull align 4 captures(none) dereferenceable(4) %3) local_unnamed_addr #2 align 2 {
  %5 = load i32, ptr %3, align 4, !tbaa !20
  %6 = icmp slt i32 %5, 1
  br i1 %6, label %7, label %_ZN6icu_7714MessagePattern8preParseERKNS_13UnicodeStringEP11UParseErrorR10UErrorCode.exit

7:                                                ; preds = %4
  %.not8.i = icmp eq ptr %2, null
  br i1 %.not8.i, label %12, label %8

8:                                                ; preds = %7
  store i32 0, ptr %2, align 4, !tbaa !27
  %9 = getelementptr inbounds nuw i8, ptr %2, i64 4
  store i32 0, ptr %9, align 4, !tbaa !29
  %10 = getelementptr inbounds nuw i8, ptr %2, i64 8
  store i16 0, ptr %10, align 4, !tbaa !30
  %11 = getelementptr inbounds nuw i8, ptr %2, i64 40
  store i16 0, ptr %11, align 4, !tbaa !30
  br label %12

12:                                               ; preds = %8, %7
  %13 = getelementptr inbounds nuw i8, ptr %0, i64 16
  %14 = tail call noundef nonnull align 8 dereferenceable(64) ptr @_ZN6icu_7713UnicodeStringaSERKS0_(ptr noundef nonnull align 8 dereferenceable(64) %13, ptr noundef nonnull align 8 dereferenceable(64) %1)
  %15 = getelementptr inbounds nuw i8, ptr %0, i64 96
  store i32 0, ptr %15, align 8, !tbaa !32
  %16 = getelementptr inbounds nuw i8, ptr %0, i64 120
  tail call void @llvm.memset.p0.i64(ptr noundef nonnull align 8 dereferenceable(7) %16, i8 0, i64 7, i1 false)
  br label %_ZN6icu_7714MessagePattern8preParseERKNS_13UnicodeStringEP11UParseErrorR10UErrorCode.exit

_ZN6icu_7714MessagePattern8preParseERKNS_13UnicodeStringEP11UParseErrorR10UErrorCode.exit: ; preds = %4, %12
  %17 = tail call noundef i32 @_ZN6icu_7714MessagePattern24parsePluralOrSelectStyleE22UMessagePatternArgTypeiiP11UParseErrorR10UErrorCode(ptr noundef nonnull align 8 dereferenceable(127) %0, i32 noundef 3, i32 noundef 0, i32 noundef 0, ptr noundef %2, ptr noundef nonnull align 4 dereferenceable(4) %3)
  %18 = getelementptr inbounds nuw i8, ptr %0, i64 80
  %19 = load ptr, ptr %18, align 8, !tbaa !22
  %.not.i = icmp eq ptr %19, null
  br i1 %.not.i, label %23, label %20

20:                                               ; preds = %_ZN6icu_7714MessagePattern8preParseERKNS_13UnicodeStringEP11UParseErrorR10UErrorCode.exit
  %21 = load ptr, ptr %19, align 8, !tbaa !23
  %22 = getelementptr inbounds nuw i8, ptr %0, i64 88
  store ptr %21, ptr %22, align 8, !tbaa !26
  br label %23

23:                                               ; preds = %20, %_ZN6icu_7714MessagePattern8preParseERKNS_13UnicodeStringEP11UParseErrorR10UErrorCode.exit
  %24 = getelementptr inbounds nuw i8, ptr %0, i64 104
  %25 = load ptr, ptr %24, align 8, !tbaa !33
  %.not2.i = icmp eq ptr %25, null
  br i1 %.not2.i, label %_ZN6icu_7714MessagePattern9postParseEv.exit, label %26

26:                                               ; preds = %23
  %27 = load ptr, ptr %25, align 8, !tbaa !34
  %28 = getelementptr inbounds nuw i8, ptr %0, i64 112
  store ptr %27, ptr %28, align 8, !tbaa !36
  br label %_ZN6icu_7714MessagePattern9postParseEv.exit

_ZN6icu_7714MessagePattern9postParseEv.exit:      ; preds = %23, %26
  ret ptr %0
}